; Function Attrs: mustprogress nounwind uwtable
define internal fastcc void @"_ZN9grpc_core14promise_detail18OncePromiseFactoryIvNS0_6TrySeqINS_5SleepEJZNS_18LegacyMaxAgeFilter8PostInitEvE3$_1ZNS4_8PostInitEvE3$_2EEEED2Ev"(ptr noundef nonnull align 8 dereferenceable(40) %this) unnamed_addr #4 align 2 personality ptr @__gxx_personality_v0 {
entry:
  %state.i.i = getelementptr inbounds i8, ptr %this, i64 32
  %0 = load i8, ptr %state.i.i, align 8
  switch i8 %0, label %"_ZN9grpc_core14promise_detail6TrySeqINS_5SleepEJZNS_18LegacyMaxAgeFilter8PostInitEvE3$_1ZNS3_8PostInitEvE3$_2EED2Ev.exit" [
    i8 0, label %invoke.cont8.sink.split.i.i
    i8 1, label %sw.bb2.i.i
    i8 2, label %invoke.cont8.sink.split.i.i
  ]

sw.bb2.i.i:                                       ; preds = %entry
  %1 = load i64, ptr %this, align 8
  %and.i.i.i.i.i.i.i.i = and i64 %1, 1
  %cmp.i.i.i.i.i.i.i.i = icmp eq i64 %and.i.i.i.i.i.i.i.i, 0
  br i1 %cmp.i.i.i.i.i.i.i.i, label %"_ZN9grpc_core14promise_detail6TrySeqINS_5SleepEJZNS_18LegacyMaxAgeFilter8PostInitEvE3$_1ZNS3_8PostInitEvE3$_2EED2Ev.exit", label %if.then.i.i.i.i.i.i.i

if.then.i.i.i.i.i.i.i:                            ; preds = %sw.bb2.i.i
  invoke void @_ZN4absl12lts_202308026Status15UnrefNonInlinedEm(i64 noundef %1)
          to label %"_ZN9grpc_core14promise_detail6TrySeqINS_5SleepEJZNS_18LegacyMaxAgeFilter8PostInitEvE3$_1ZNS3_8PostInitEvE3$_2EED2Ev.exit" unwind label %terminate.lpad.i.i.i.i.i.i

terminate.lpad.i.i.i.i.i.i:                       ; preds = %if.then.i.i.i.i.i.i.i
  %2 = landingpad { ptr, i32 }
          catch ptr null
  %3 = extractvalue { ptr, i32 } %2, 0
  tail call void @__clang_call_terminate(ptr %3) #25
  unreachable

invoke.cont8.sink.split.i.i:                      ; preds = %entry, %entry
  tail call void @_ZN9grpc_core5SleepD1Ev(ptr noundef nonnull align 8 dereferenceable(16) %this) #24
  br label %"_ZN9grpc_core14promise_detail6TrySeqINS_5SleepEJZNS_18LegacyMaxAgeFilter8PostInitEvE3$_1ZNS3_8PostInitEvE3$_2EED2Ev.exit"

"_ZN9grpc_core14promise_detail6TrySeqINS_5SleepEJZNS_18LegacyMaxAgeFilter8PostInitEvE3$_1ZNS3_8PostInitEvE3$_2EED2Ev.exit": ; preds = %entry, %sw.bb2.i.i, %if.then.i.i.i.i.i.i.i, %invoke.cont8.sink.split.i.i
  ret void
}